target datalayout = "e-m:e-p270:32:32-p271:32:32-p272:64:64-i64:64-i128:128-f80:128-n8:16:32:64-S128"
target triple = "x86_64-pc-linux-gnu"

@.str.34 = private unnamed_addr constant [14 x i8] c"1updateTaps()\00", align 1

; Function Attrs: mustprogress uwtable
define void @_ZN15MainApplication10updateTapsEv(ptr noundef nonnull align 8 dereferenceable(216) %0) #4 align 2 {
  %2 = alloca ptr, align 8
  store ptr %0, ptr %2, align 8
  call void @draw_tap_listeners(i32 noundef 0)
  ret void
}

; Function Attrs: mustprogress uwtable
define void @_ZN15MainApplication19captureEventHandlerE12CaptureEvent(ptr noundef nonnull align 8 dereferenceable(216) %0, ptr noundef %1) #4 align 2 {
  %3 = alloca ptr, align 8
  %4 = alloca ptr, align 8
  store ptr %0, ptr %3, align 8
  store ptr %1, ptr %4, align 8
  %5 = load ptr, ptr %3, align 8
  %6 = call noundef i32 @_ZNK12CaptureEvent14captureContextEv(ptr noundef nonnull align 8 dereferenceable(40) %1)
  switch i32 %6, label %13 [
    i32 2, label %7
    i32 258, label %7
    i32 514, label %7
  ]

7:                                                ; preds = %2, %2, %2
  %8 = call noundef i32 @_ZNK12CaptureEvent9eventTypeEv(ptr noundef nonnull align 8 dereferenceable(40) %1)
  switch i32 %8, label %11 [
    i32 2, label %9
    i32 4, label %10
  ]

9:                                                ; preds = %7
  call void @_ZN6QTimer10singleShotEiPK7QObjectPKc(i32 noundef 600, ptr noundef %5, ptr noundef @.str.34)
  call void @_ZN6QTimer10singleShotEiPK7QObjectPKc(i32 noundef 1500, ptr noundef %5, ptr noundef @.str.34)
  br label %12

10:                                               ; preds = %7
  call void @_ZN15MainApplication10updateTapsEv(ptr noundef nonnull align 8 dereferenceable(216) %5)
  br label %12

11:                                               ; preds = %7
  br label %12

12:                                               ; preds = %11, %10, %9
  br label %14

13:                                               ; preds = %2
  br label %14

14:                                               ; preds = %13, %12
  ret void
}