; Function Attrs: mustprogress uwtable
define void @_ZN15MainApplication19captureEventHandlerE12CaptureEvent(ptr noundef nonnull align 8 dereferenceable(216) %0, ptr noundef nonnull %1) local_unnamed_addr #3 align 2 {
  %3 = tail call noundef i32 @_ZNK12CaptureEvent14captureContextEv(ptr noundef nonnull align 8 dereferenceable(40) %1)
  switch i32 %3, label %8 [
    i32 2, label %4
    i32 258, label %4
    i32 514, label %4
  ]

4:                                                ; preds = %2, %2, %2
  %5 = tail call noundef i32 @_ZNK12CaptureEvent9eventTypeEv(ptr noundef nonnull align 8 dereferenceable(40) %1)
  switch i32 %5, label %8 [
    i32 2, label %6
    i32 4, label %7
  ]

6:                                                ; preds = %4
  tail call void @_ZN6QTimer10singleShotEiPK7QObjectPKc(i32 noundef 600, ptr noundef nonnull %0, ptr noundef nonnull @.str.34)
  tail call void @_ZN6QTimer10singleShotEiPK7QObjectPKc(i32 noundef 1500, ptr noundef nonnull %0, ptr noundef nonnull @.str.34)
  br label %8

7:                                                ; preds = %4
  tail call void @draw_tap_listeners(i32 noundef 0)
  br label %8

8:                                                ; preds = %2, %6, %7, %4
  ret void
}